; Function Attrs: nofree nosync nounwind memory(readwrite, inaccessiblemem: none) uwtable
define internal fastcc void @tune_call2(ptr noundef captures(none) %0) unnamed_addr #15 {
  br label %tailrecurse

tailrecurse:                                      ; preds = %tailrecurse.backedge, %1
  %.tr = phi ptr [ %0, %1 ], [ %.tr.be, %tailrecurse.backedge ]
  %2 = load i32, ptr %.tr, align 8, !tbaa !20
  switch i32 %2, label %.critedge [
    i32 7, label %.preheader
    i32 8, label %.preheader
    i32 4, label %8
    i32 6, label %13
    i32 5, label %17
    i32 9, label %35
  ]

.preheader:                                       ; preds = %tailrecurse, %tailrecurse
  br label %3

3:                                                ; preds = %.preheader, %3
  %.027 = phi ptr [ %7, %3 ], [ %.tr, %.preheader ]
  %4 = getelementptr inbounds nuw i8, ptr %.027, i64 16
  %5 = load ptr, ptr %4, align 8, !tbaa !20
  tail call fastcc void @tune_call2(ptr noundef %5)
  %6 = getelementptr inbounds nuw i8, ptr %.027, i64 24
  %7 = load ptr, ptr %6, align 8, !tbaa !20
  %.not39 = icmp eq ptr %7, null
  br i1 %.not39, label %.critedge, label %3, !llvm.loop !216

8:                                                ; preds = %tailrecurse
  %9 = getelementptr inbounds nuw i8, ptr %.tr, i64 28
  %10 = load i32, ptr %9, align 4, !tbaa !20
  %.not38 = icmp eq i32 %10, 0
  br i1 %.not38, label %.critedge, label %tailrecurse.backedge.sink.split

tailrecurse.backedge.sink.split:                  ; preds = %8, %13
  %11 = getelementptr inbounds nuw i8, ptr %.tr, i64 16
  %12 = load ptr, ptr %11, align 8, !tbaa !20
  br label %tailrecurse.backedge

tailrecurse.backedge:                             ; preds = %tailrecurse.backedge.sink.split, %32
  %.tr.be = phi ptr [ %34, %32 ], [ %12, %tailrecurse.backedge.sink.split ]
  br label %tailrecurse

13:                                               ; preds = %tailrecurse
  %14 = getelementptr inbounds nuw i8, ptr %.tr, i64 24
  %15 = load i32, ptr %14, align 8, !tbaa !20
  %16 = icmp slt i32 %15, 16
  br i1 %16, label %tailrecurse.backedge.sink.split, label %.critedge

17:                                               ; preds = %tailrecurse
  %18 = getelementptr inbounds nuw i8, ptr %.tr, i64 4
  %19 = load i32, ptr %18, align 4, !tbaa !20
  %20 = and i32 %19, 2048
  %.not35 = icmp eq i32 %20, 0
  br i1 %.not35, label %21, label %24

21:                                               ; preds = %17
  %22 = getelementptr inbounds nuw i8, ptr %.tr, i64 16
  %23 = load ptr, ptr %22, align 8, !tbaa !20
  tail call fastcc void @tune_call2(ptr noundef %23)
  br label %24

24:                                               ; preds = %17, %21
  %25 = getelementptr inbounds nuw i8, ptr %.tr, i64 24
  %26 = load i32, ptr %25, align 8, !tbaa !98
  %27 = icmp eq i32 %26, 3
  br i1 %27, label %28, label %.critedge

28:                                               ; preds = %24
  %29 = getelementptr inbounds nuw i8, ptr %.tr, i64 32
  %30 = load ptr, ptr %29, align 8, !tbaa !20
  %.not36 = icmp eq ptr %30, null
  br i1 %.not36, label %32, label %31

31:                                               ; preds = %28
  tail call fastcc void @tune_call2(ptr noundef nonnull %30)
  br label %32

32:                                               ; preds = %31, %28
  %33 = getelementptr inbounds nuw i8, ptr %.tr, i64 40
  %34 = load ptr, ptr %33, align 8, !tbaa !20
  %.not37 = icmp eq ptr %34, null
  br i1 %.not37, label %.critedge, label %tailrecurse.backedge

35:                                               ; preds = %tailrecurse
  %36 = getelementptr inbounds nuw i8, ptr %.tr, i64 4
  %37 = load i32, ptr %36, align 4, !tbaa !20
  %38 = and i32 %37, 2048
  %.not = icmp eq i32 %38, 0
  br i1 %.not, label %39, label %.critedge

39:                                               ; preds = %35
  tail call fastcc void @tune_call2_call(ptr noundef nonnull %.tr)
  br label %.critedge

.critedge:                                        ; preds = %8, %13, %tailrecurse, %24, %32, %3, %39, %35
  ret void
}